target datalayout = "e-m:e-p270:32:32-p271:32:32-p272:64:64-i64:64-i128:128-f80:128-n8:16:32:64-S128"
target triple = "x86_64-pc-linux-gnu"

%struct._priv_exr_context_t = type { i8, i8, i8, i8, i8, i8, i8, i8, %struct.exr_attr_string_t, %struct.exr_attr_string_t, ptr, ptr, ptr, ptr, ptr, ptr, ptr, ptr, i32, i32, i32, i32, i32, float, ptr, ptr, ptr, i64, ptr, ptr, i64, i32, i32, i32, i32, %struct._priv_exr_part_t, ptr, ptr, %struct.exr_attribute_list, %union.pthread_mutex_t, i8, i8, [2 x i8], i32 }
%struct.exr_attr_string_t = type { i32, i32, ptr }
%struct._priv_exr_part_t = type { i32, i32, %struct.exr_attribute_list, ptr, ptr, ptr, ptr, ptr, ptr, ptr, ptr, ptr, ptr, ptr, ptr, ptr, ptr, %struct.exr_attr_box2i_t, %struct.exr_attr_box2i_t, i32, i32, i32, float, i32, i32, ptr, ptr, ptr, ptr, i64, i16, i16, i32, i64, i64 }
%struct.exr_attr_box2i_t = type { %struct.exr_attr_v2i_t, %struct.exr_attr_v2i_t }
%struct.exr_attr_v2i_t = type { i32, i32 }
%struct.exr_attribute_list = type { i32, i32, ptr, ptr }
%union.pthread_mutex_t = type { %struct.__pthread_mutex_s }
%struct.__pthread_mutex_s = type { i32, i32, i32, i32, i32, i16, i16, %struct.__pthread_internal_list }
%struct.__pthread_internal_list = type { ptr, ptr }
%struct.exr_attribute_t = type { ptr, ptr, i8, i8, [2 x i8], i32, %union.anon }
%union.anon = type { double }
%struct.exr_attr_chlist_t = type { i32, i32, ptr }
%struct.exr_attr_chlist_entry_t = type { %struct.exr_attr_string_t, i32, i8, [3 x i8], i32, i32 }

@.str.10 = private unnamed_addr constant [86 x i8] c"Part %d, attribute '%s' (type '%s') has a name too long for new longname setting (%d)\00", align 1
@.str.11 = private unnamed_addr constant [72 x i8] c"Part %d, channel '%s' has a name too long for new longname setting (%d)\00", align 1

; Function Attrs: inlinehint nounwind uwtable
define internal void @internal_exr_unlock(ptr noundef %0) #2 {
  %2 = alloca ptr, align 8
  %3 = alloca ptr, align 8
  store ptr %0, ptr %2, align 8, !tbaa !12
  call void @llvm.lifetime.start.p0(i64 8, ptr %3) #9
  %4 = load ptr, ptr %2, align 8, !tbaa !12
  %5 = ptrtoint ptr %4 to i64
  %6 = inttoptr i64 %5 to ptr
  store ptr %6, ptr %3, align 8, !tbaa !12
  %7 = load ptr, ptr %3, align 8, !tbaa !12
  %8 = getelementptr inbounds nuw %struct._priv_exr_context_t, ptr %7, i32 0, i32 39
  %9 = call i32 @pthread_mutex_unlock(ptr noundef %8) #9
  call void @llvm.lifetime.end.p0(i64 8, ptr %3) #9
  ret void
}

; Function Attrs: inlinehint nounwind uwtable
define internal void @internal_exr_lock(ptr noundef %0) #2 {
  %2 = alloca ptr, align 8
  %3 = alloca ptr, align 8
  store ptr %0, ptr %2, align 8, !tbaa !12
  call void @llvm.lifetime.start.p0(i64 8, ptr %3) #9
  %4 = load ptr, ptr %2, align 8, !tbaa !12
  %5 = ptrtoint ptr %4 to i64
  %6 = inttoptr i64 %5 to ptr
  store ptr %6, ptr %3, align 8, !tbaa !12
  %7 = load ptr, ptr %3, align 8, !tbaa !12
  %8 = getelementptr inbounds nuw %struct._priv_exr_context_t, ptr %7, i32 0, i32 39
  %9 = call i32 @pthread_mutex_lock(ptr noundef %8) #9
  call void @llvm.lifetime.end.p0(i64 8, ptr %3) #9
  ret void
}

; Function Attrs: nounwind uwtable
define i32 @exr_set_longname_support(ptr noundef %0, i32 noundef %1) #0 {
  %3 = alloca i32, align 4
  %4 = alloca ptr, align 8
  %5 = alloca i32, align 4
  %6 = alloca i8, align 1
  %7 = alloca i8, align 1
  %8 = alloca i32, align 4
  %9 = alloca i32, align 4
  %10 = alloca ptr, align 8
  %11 = alloca i32, align 4
  %12 = alloca ptr, align 8
  %13 = alloca ptr, align 8
  %14 = alloca i32, align 4
  store ptr %0, ptr %4, align 8, !tbaa !12
  store i32 %1, ptr %5, align 4, !tbaa !10
  call void @llvm.lifetime.start.p0(i64 1, ptr %6) #9
  call void @llvm.lifetime.start.p0(i64 1, ptr %7) #9
  %15 = load ptr, ptr %4, align 8, !tbaa !12
  %16 = icmp ne ptr %15, null
  br i1 %16, label %18, label %17

17:                                               ; preds = %2
  store i32 2, ptr %3, align 4
  store i32 1, ptr %8, align 4
  br label %206

18:                                               ; preds = %2
  %19 = load ptr, ptr %4, align 8, !tbaa !12
  call void @internal_exr_lock(ptr noundef %19)
  %20 = load ptr, ptr %4, align 8, !tbaa !12
  %21 = getelementptr inbounds nuw %struct._priv_exr_context_t, ptr %20, i32 0, i32 0
  %22 = load i8, ptr %21, align 8, !tbaa !66
  %23 = zext i8 %22 to i32
  %24 = icmp ne i32 %23, 1
  br i1 %24, label %25, label %38

25:                                               ; preds = %18
  %26 = load ptr, ptr %4, align 8, !tbaa !12
  %27 = getelementptr inbounds nuw %struct._priv_exr_context_t, ptr %26, i32 0, i32 0
  %28 = load i8, ptr %27, align 8, !tbaa !66
  %29 = zext i8 %28 to i32
  %30 = icmp ne i32 %29, 4
  br i1 %30, label %31, label %38

31:                                               ; preds = %25
  %32 = load ptr, ptr %4, align 8, !tbaa !12
  call void @internal_exr_unlock(ptr noundef %32)
  %33 = load ptr, ptr %4, align 8, !tbaa !12
  %34 = getelementptr inbounds nuw %struct._priv_exr_context_t, ptr %33, i32 0, i32 12
  %35 = load ptr, ptr %34, align 8, !tbaa !53
  %36 = load ptr, ptr %4, align 8, !tbaa !12
  %37 = call i32 %35(ptr noundef %36, i32 noundef 8)
  store i32 %37, ptr %3, align 4
  store i32 1, ptr %8, align 4
  br label %206

38:                                               ; preds = %25, %18
  %39 = load ptr, ptr %4, align 8, !tbaa !12
  %40 = getelementptr inbounds nuw %struct._priv_exr_context_t, ptr %39, i32 0, i32 2
  %41 = load i8, ptr %40, align 2, !tbaa !81
  store i8 %41, ptr %6, align 1, !tbaa !74
  store i8 31, ptr %7, align 1, !tbaa !74
  %42 = load i32, ptr %5, align 4, !tbaa !10
  %43 = icmp ne i32 %42, 0
  br i1 %43, label %44, label %47

44:                                               ; preds = %38
  store i8 -1, ptr %7, align 1, !tbaa !74
  %45 = load ptr, ptr %4, align 8, !tbaa !12
  %46 = getelementptr inbounds nuw %struct._priv_exr_context_t, ptr %45, i32 0, i32 1
  store i8 2, ptr %46, align 1, !tbaa !99
  br label %50

47:                                               ; preds = %38
  %48 = load ptr, ptr %4, align 8, !tbaa !12
  %49 = getelementptr inbounds nuw %struct._priv_exr_context_t, ptr %48, i32 0, i32 1
  store i8 1, ptr %49, align 1, !tbaa !99
  br label %50

50:                                               ; preds = %47, %44
  %51 = load i8, ptr %6, align 1, !tbaa !74
  %52 = zext i8 %51 to i32
  %53 = load i8, ptr %7, align 1, !tbaa !74
  %54 = zext i8 %53 to i32
  %55 = icmp sgt i32 %52, %54
  br i1 %55, label %56, label %201

56:                                               ; preds = %50
  call void @llvm.lifetime.start.p0(i64 4, ptr %9) #9
  store i32 0, ptr %9, align 4, !tbaa !10
  br label %57

57:                                               ; preds = %195, %56
  %58 = load i32, ptr %9, align 4, !tbaa !10
  %59 = load ptr, ptr %4, align 8, !tbaa !12
  %60 = getelementptr inbounds nuw %struct._priv_exr_context_t, ptr %59, i32 0, i32 34
  %61 = load i32, ptr %60, align 4, !tbaa !86
  %62 = icmp slt i32 %58, %61
  br i1 %62, label %64, label %63

63:                                               ; preds = %57
  store i32 2, ptr %8, align 4
  br label %198

64:                                               ; preds = %57
  call void @llvm.lifetime.start.p0(i64 8, ptr %10) #9
  %65 = load ptr, ptr %4, align 8, !tbaa !12
  %66 = getelementptr inbounds nuw %struct._priv_exr_context_t, ptr %65, i32 0, i32 37
  %67 = load ptr, ptr %66, align 8, !tbaa !87
  %68 = load i32, ptr %9, align 4, !tbaa !10
  %69 = sext i32 %68 to i64
  %70 = getelementptr inbounds ptr, ptr %67, i64 %69
  %71 = load ptr, ptr %70, align 8, !tbaa !88
  store ptr %71, ptr %10, align 8, !tbaa !88
  call void @llvm.lifetime.start.p0(i64 4, ptr %11) #9
  store i32 0, ptr %11, align 4, !tbaa !10
  br label %72

72:                                               ; preds = %186, %64
  %73 = load i32, ptr %11, align 4, !tbaa !10
  %74 = load ptr, ptr %10, align 8, !tbaa !88
  %75 = getelementptr inbounds nuw %struct._priv_exr_part_t, ptr %74, i32 0, i32 2
  %76 = getelementptr inbounds nuw %struct.exr_attribute_list, ptr %75, i32 0, i32 0
  %77 = load i32, ptr %76, align 8, !tbaa !100
  %78 = icmp slt i32 %73, %77
  br i1 %78, label %80, label %79

79:                                               ; preds = %72
  store i32 5, ptr %8, align 4
  br label %189

80:                                               ; preds = %72
  call void @llvm.lifetime.start.p0(i64 8, ptr %12) #9
  %81 = load ptr, ptr %10, align 8, !tbaa !88
  %82 = getelementptr inbounds nuw %struct._priv_exr_part_t, ptr %81, i32 0, i32 2
  %83 = getelementptr inbounds nuw %struct.exr_attribute_list, ptr %82, i32 0, i32 2
  %84 = load ptr, ptr %83, align 8, !tbaa !101
  %85 = load i32, ptr %11, align 4, !tbaa !10
  %86 = sext i32 %85 to i64
  %87 = getelementptr inbounds ptr, ptr %84, i64 %86
  %88 = load ptr, ptr %87, align 8, !tbaa !45
  store ptr %88, ptr %12, align 8, !tbaa !45
  %89 = load ptr, ptr %12, align 8, !tbaa !45
  %90 = getelementptr inbounds nuw %struct.exr_attribute_t, ptr %89, i32 0, i32 2
  %91 = load i8, ptr %90, align 8, !tbaa !102
  %92 = zext i8 %91 to i32
  %93 = load i8, ptr %7, align 1, !tbaa !74
  %94 = zext i8 %93 to i32
  %95 = icmp sgt i32 %92, %94
  br i1 %95, label %104, label %96

96:                                               ; preds = %80
  %97 = load ptr, ptr %12, align 8, !tbaa !45
  %98 = getelementptr inbounds nuw %struct.exr_attribute_t, ptr %97, i32 0, i32 3
  %99 = load i8, ptr %98, align 1, !tbaa !93
  %100 = zext i8 %99 to i32
  %101 = load i8, ptr %7, align 1, !tbaa !74
  %102 = zext i8 %101 to i32
  %103 = icmp sgt i32 %100, %102
  br i1 %103, label %104, label %122

104:                                              ; preds = %96, %80
  %105 = load ptr, ptr %4, align 8, !tbaa !12
  call void @internal_exr_unlock(ptr noundef %105)
  %106 = load ptr, ptr %4, align 8, !tbaa !12
  %107 = getelementptr inbounds nuw %struct._priv_exr_context_t, ptr %106, i32 0, i32 14
  %108 = load ptr, ptr %107, align 8, !tbaa !52
  %109 = load ptr, ptr %4, align 8, !tbaa !12
  %110 = load ptr, ptr %10, align 8, !tbaa !88
  %111 = getelementptr inbounds nuw %struct._priv_exr_part_t, ptr %110, i32 0, i32 0
  %112 = load i32, ptr %111, align 8, !tbaa !103
  %113 = load ptr, ptr %12, align 8, !tbaa !45
  %114 = getelementptr inbounds nuw %struct.exr_attribute_t, ptr %113, i32 0, i32 0
  %115 = load ptr, ptr %114, align 8, !tbaa !104
  %116 = load ptr, ptr %12, align 8, !tbaa !45
  %117 = getelementptr inbounds nuw %struct.exr_attribute_t, ptr %116, i32 0, i32 1
  %118 = load ptr, ptr %117, align 8, !tbaa !95
  %119 = load i8, ptr %7, align 1, !tbaa !74
  %120 = zext i8 %119 to i32
  %121 = call i32 (ptr, i32, ptr, ...) %108(ptr noundef %109, i32 noundef 12, ptr noundef @.str.10, i32 noundef %112, ptr noundef %115, ptr noundef %118, i32 noundef %120)
  store i32 %121, ptr %3, align 4
  store i32 1, ptr %8, align 4
  br label %183

122:                                              ; preds = %96
  %123 = load ptr, ptr %12, align 8, !tbaa !45
  %124 = getelementptr inbounds nuw %struct.exr_attribute_t, ptr %123, i32 0, i32 5
  %125 = load i32, ptr %124, align 4, !tbaa !105
  %126 = icmp eq i32 %125, 3
  br i1 %126, label %127, label %182

127:                                              ; preds = %122
  call void @llvm.lifetime.start.p0(i64 8, ptr %13) #9
  %128 = load ptr, ptr %12, align 8, !tbaa !45
  %129 = getelementptr inbounds nuw %struct.exr_attribute_t, ptr %128, i32 0, i32 6
  %130 = load ptr, ptr %129, align 8, !tbaa !74
  store ptr %130, ptr %13, align 8, !tbaa !45
  call void @llvm.lifetime.start.p0(i64 4, ptr %14) #9
  store i32 0, ptr %14, align 4, !tbaa !10
  br label %131

131:                                              ; preds = %173, %127
  %132 = load i32, ptr %14, align 4, !tbaa !10
  %133 = load ptr, ptr %13, align 8, !tbaa !45
  %134 = getelementptr inbounds nuw %struct.exr_attr_chlist_t, ptr %133, i32 0, i32 0
  %135 = load i32, ptr %134, align 8, !tbaa !106
  %136 = icmp slt i32 %132, %135
  br i1 %136, label %138, label %137

137:                                              ; preds = %131
  store i32 8, ptr %8, align 4
  br label %176

138:                                              ; preds = %131
  %139 = load ptr, ptr %13, align 8, !tbaa !45
  %140 = getelementptr inbounds nuw %struct.exr_attr_chlist_t, ptr %139, i32 0, i32 2
  %141 = load ptr, ptr %140, align 8, !tbaa !108
  %142 = load i32, ptr %14, align 4, !tbaa !10
  %143 = sext i32 %142 to i64
  %144 = getelementptr inbounds %struct.exr_attr_chlist_entry_t, ptr %141, i64 %143
  %145 = getelementptr inbounds nuw %struct.exr_attr_chlist_entry_t, ptr %144, i32 0, i32 0
  %146 = getelementptr inbounds nuw %struct.exr_attr_string_t, ptr %145, i32 0, i32 0
  %147 = load i32, ptr %146, align 8, !tbaa !109
  %148 = load i8, ptr %7, align 1, !tbaa !74
  %149 = zext i8 %148 to i32
  %150 = icmp sgt i32 %147, %149
  br i1 %150, label %151, label %172

151:                                              ; preds = %138
  %152 = load ptr, ptr %4, align 8, !tbaa !12
  call void @internal_exr_unlock(ptr noundef %152)
  %153 = load ptr, ptr %4, align 8, !tbaa !12
  %154 = getelementptr inbounds nuw %struct._priv_exr_context_t, ptr %153, i32 0, i32 14
  %155 = load ptr, ptr %154, align 8, !tbaa !52
  %156 = load ptr, ptr %4, align 8, !tbaa !12
  %157 = load ptr, ptr %10, align 8, !tbaa !88
  %158 = getelementptr inbounds nuw %struct._priv_exr_part_t, ptr %157, i32 0, i32 0
  %159 = load i32, ptr %158, align 8, !tbaa !103
  %160 = load ptr, ptr %13, align 8, !tbaa !45
  %161 = getelementptr inbounds nuw %struct.exr_attr_chlist_t, ptr %160, i32 0, i32 2
  %162 = load ptr, ptr %161, align 8, !tbaa !108
  %163 = load i32, ptr %14, align 4, !tbaa !10
  %164 = sext i32 %163 to i64
  %165 = getelementptr inbounds %struct.exr_attr_chlist_entry_t, ptr %162, i64 %164
  %166 = getelementptr inbounds nuw %struct.exr_attr_chlist_entry_t, ptr %165, i32 0, i32 0
  %167 = getelementptr inbounds nuw %struct.exr_attr_string_t, ptr %166, i32 0, i32 2
  %168 = load ptr, ptr %167, align 8, !tbaa !111
  %169 = load i8, ptr %7, align 1, !tbaa !74
  %170 = zext i8 %169 to i32
  %171 = call i32 (ptr, i32, ptr, ...) %155(ptr noundef %156, i32 noundef 12, ptr noundef @.str.11, i32 noundef %159, ptr noundef %168, i32 noundef %170)
  store i32 %171, ptr %3, align 4
  store i32 1, ptr %8, align 4
  br label %176

172:                                              ; preds = %138
  br label %173

173:                                              ; preds = %172
  %174 = load i32, ptr %14, align 4, !tbaa !10
  %175 = add nsw i32 %174, 1
  store i32 %175, ptr %14, align 4, !tbaa !10
  br label %131, !llvm.loop !112

176:                                              ; preds = %151, %137
  call void @llvm.lifetime.end.p0(i64 4, ptr %14) #9
  %177 = load i32, ptr %8, align 4
  switch i32 %177, label %179 [
    i32 8, label %178
  ]

178:                                              ; preds = %176
  store i32 0, ptr %8, align 4
  br label %179

179:                                              ; preds = %178, %176
  call void @llvm.lifetime.end.p0(i64 8, ptr %13) #9
  %180 = load i32, ptr %8, align 4
  switch i32 %180, label %183 [
    i32 0, label %181
  ]

181:                                              ; preds = %179
  br label %182

182:                                              ; preds = %181, %122
  store i32 0, ptr %8, align 4
  br label %183

183:                                              ; preds = %182, %179, %104
  call void @llvm.lifetime.end.p0(i64 8, ptr %12) #9
  %184 = load i32, ptr %8, align 4
  switch i32 %184, label %189 [
    i32 0, label %185
  ]

185:                                              ; preds = %183
  br label %186

186:                                              ; preds = %185
  %187 = load i32, ptr %11, align 4, !tbaa !10
  %188 = add nsw i32 %187, 1
  store i32 %188, ptr %11, align 4, !tbaa !10
  br label %72, !llvm.loop !113

189:                                              ; preds = %183, %79
  call void @llvm.lifetime.end.p0(i64 4, ptr %11) #9
  %190 = load i32, ptr %8, align 4
  switch i32 %190, label %192 [
    i32 5, label %191
  ]

191:                                              ; preds = %189
  store i32 0, ptr %8, align 4
  br label %192

192:                                              ; preds = %191, %189
  call void @llvm.lifetime.end.p0(i64 8, ptr %10) #9
  %193 = load i32, ptr %8, align 4
  switch i32 %193, label %198 [
    i32 0, label %194
  ]

194:                                              ; preds = %192
  br label %195

195:                                              ; preds = %194
  %196 = load i32, ptr %9, align 4, !tbaa !10
  %197 = add nsw i32 %196, 1
  store i32 %197, ptr %9, align 4, !tbaa !10
  br label %57, !llvm.loop !114

198:                                              ; preds = %192, %63
  call void @llvm.lifetime.end.p0(i64 4, ptr %9) #9
  %199 = load i32, ptr %8, align 4
  switch i32 %199, label %206 [
    i32 2, label %200
  ]

200:                                              ; preds = %198
  br label %201

201:                                              ; preds = %200, %50
  %202 = load i8, ptr %7, align 1, !tbaa !74
  %203 = load ptr, ptr %4, align 8, !tbaa !12
  %204 = getelementptr inbounds nuw %struct._priv_exr_context_t, ptr %203, i32 0, i32 2
  store i8 %202, ptr %204, align 2, !tbaa !81
  %205 = load ptr, ptr %4, align 8, !tbaa !12
  call void @internal_exr_unlock(ptr noundef %205)
  store i32 0, ptr %3, align 4
  store i32 1, ptr %8, align 4
  br label %206

206:                                              ; preds = %201, %198, %31, %17
  call void @llvm.lifetime.end.p0(i64 1, ptr %7) #9
  call void @llvm.lifetime.end.p0(i64 1, ptr %6) #9
  %207 = load i32, ptr %3, align 4
  ret i32 %207
}