; Function Attrs: nounwind uwtable
define i32 @exr_set_longname_support(ptr noundef %0, i32 noundef %1) local_unnamed_addr #0 {
  %.not = icmp eq ptr %0, null
  br i1 %.not, label %74, label %3

3:                                                ; preds = %2
  %4 = getelementptr inbounds nuw i8, ptr %0, i64 504
  %5 = tail call i32 @pthread_mutex_lock(ptr noundef nonnull %4) #13
  %6 = load i8, ptr %0, align 8, !tbaa !56
  switch i8 %6, label %7 [
    i8 1, label %12
    i8 4, label %12
  ]

7:                                                ; preds = %3
  %8 = tail call i32 @pthread_mutex_unlock(ptr noundef nonnull %4) #13
  %9 = getelementptr inbounds nuw i8, ptr %0, i64 56
  %10 = load ptr, ptr %9, align 8, !tbaa !55
  %11 = tail call i32 %10(ptr noundef nonnull %0, i32 noundef 8) #13
  br label %74

12:                                               ; preds = %3, %3
  %13 = getelementptr inbounds nuw i8, ptr %0, i64 2
  %.not77 = icmp eq i32 %1, 0
  br i1 %.not77, label %15, label %.thread

.thread:                                          ; preds = %12
  %14 = getelementptr inbounds nuw i8, ptr %0, i64 1
  store i8 2, ptr %14, align 1, !tbaa !94
  br label %.thread106

15:                                               ; preds = %12
  %16 = load i8, ptr %13, align 2, !tbaa !78
  %17 = getelementptr inbounds nuw i8, ptr %0, i64 1
  store i8 1, ptr %17, align 1, !tbaa !94
  %18 = icmp ugt i8 %16, 31
  br i1 %18, label %.preheader, label %.thread106

.preheader:                                       ; preds = %15
  %19 = getelementptr inbounds nuw i8, ptr %0, i64 196
  %20 = load i32, ptr %19, align 4, !tbaa !83
  %.not79119 = icmp sgt i32 %20, 0
  br i1 %.not79119, label %.lr.ph121, label %.thread106

.lr.ph121:                                        ; preds = %.preheader
  %21 = getelementptr inbounds nuw i8, ptr %0, i64 472
  %22 = load ptr, ptr %21, align 8, !tbaa !84
  %wide.trip.count139 = zext nneg i32 %20 to i64
  br label %23

23:                                               ; preds = %.lr.ph121, %.thread103
  %indvars.iv136 = phi i64 [ 0, %.lr.ph121 ], [ %indvars.iv.next137, %.thread103 ]
  %24 = getelementptr inbounds nuw ptr, ptr %22, i64 %indvars.iv136
  %25 = load ptr, ptr %24, align 8, !tbaa !85
  %26 = getelementptr inbounds nuw i8, ptr %25, i64 8
  %27 = load i32, ptr %26, align 8, !tbaa !95
  %.not80116 = icmp sgt i32 %27, 0
  br i1 %.not80116, label %.lr.ph118, label %.thread103

.lr.ph118:                                        ; preds = %23
  %28 = getelementptr inbounds nuw i8, ptr %25, i64 16
  %29 = load ptr, ptr %28, align 8, !tbaa !96
  %wide.trip.count134 = zext nneg i32 %27 to i64
  br label %30

30:                                               ; preds = %.lr.ph118, %.thread83
  %indvars.iv131 = phi i64 [ 0, %.lr.ph118 ], [ %indvars.iv.next132, %.thread83 ]
  %31 = getelementptr inbounds nuw ptr, ptr %29, i64 %indvars.iv131
  %32 = load ptr, ptr %31, align 8, !tbaa !77
  %33 = getelementptr inbounds nuw i8, ptr %32, i64 16
  %34 = load i8, ptr %33, align 8, !tbaa !97
  %35 = icmp ugt i8 %34, 31
  br i1 %35, label %.thread101, label %36

36:                                               ; preds = %30
  %37 = getelementptr inbounds nuw i8, ptr %32, i64 17
  %38 = load i8, ptr %37, align 1, !tbaa !88
  %39 = icmp ugt i8 %38, 31
  br i1 %39, label %.thread101, label %48

.thread101:                                       ; preds = %36, %30
  %40 = tail call i32 @pthread_mutex_unlock(ptr noundef nonnull %4) #13
  %41 = getelementptr inbounds nuw i8, ptr %0, i64 72
  %42 = load ptr, ptr %41, align 8, !tbaa !50
  %43 = load i32, ptr %25, align 8, !tbaa !98
  %44 = load ptr, ptr %32, align 8, !tbaa !99
  %45 = getelementptr inbounds nuw i8, ptr %32, i64 8
  %46 = load ptr, ptr %45, align 8, !tbaa !90
  %47 = tail call i32 (ptr, i32, ptr, ...) %42(ptr noundef nonnull %0, i32 noundef 12, ptr noundef nonnull @.str.10, i32 noundef %43, ptr noundef %44, ptr noundef %46, i32 noundef 31) #13
  br label %74

48:                                               ; preds = %36
  %49 = getelementptr inbounds nuw i8, ptr %32, i64 20
  %50 = load i32, ptr %49, align 4, !tbaa !100
  %51 = icmp eq i32 %50, 3
  br i1 %51, label %52, label %.thread83

52:                                               ; preds = %48
  %53 = getelementptr inbounds nuw i8, ptr %32, i64 24
  %54 = load ptr, ptr %53, align 8, !tbaa !69
  %55 = load i32, ptr %54, align 8, !tbaa !101
  %.not78114 = icmp sgt i32 %55, 0
  br i1 %.not78114, label %.lr.ph, label %.thread83

.lr.ph:                                           ; preds = %52
  %56 = getelementptr inbounds nuw i8, ptr %54, i64 8
  %57 = load ptr, ptr %56, align 8, !tbaa !103
  %wide.trip.count = zext nneg i32 %55 to i64
  br label %59

58:                                               ; preds = %59
  %indvars.iv.next = add nuw nsw i64 %indvars.iv, 1
  %exitcond.not = icmp eq i64 %indvars.iv.next, %wide.trip.count
  br i1 %exitcond.not, label %.thread83, label %59, !llvm.loop !104

59:                                               ; preds = %.lr.ph, %58
  %indvars.iv = phi i64 [ 0, %.lr.ph ], [ %indvars.iv.next, %58 ]
  %60 = getelementptr inbounds nuw %struct.exr_attr_chlist_entry_t, ptr %57, i64 %indvars.iv
  %61 = load i32, ptr %60, align 8, !tbaa !105
  %62 = icmp sgt i32 %61, 31
  br i1 %62, label %63, label %58

.thread83:                                        ; preds = %58, %52, %48
  %indvars.iv.next132 = add nuw nsw i64 %indvars.iv131, 1
  %exitcond135.not = icmp eq i64 %indvars.iv.next132, %wide.trip.count134
  br i1 %exitcond135.not, label %.thread103, label %30, !llvm.loop !107

63:                                               ; preds = %59
  %64 = getelementptr inbounds nuw i8, ptr %54, i64 8
  %65 = tail call i32 @pthread_mutex_unlock(ptr noundef nonnull %4) #13
  %66 = getelementptr inbounds nuw i8, ptr %0, i64 72
  %67 = load ptr, ptr %66, align 8, !tbaa !50
  %68 = load i32, ptr %25, align 8, !tbaa !98
  %69 = load ptr, ptr %64, align 8, !tbaa !103
  %70 = getelementptr inbounds nuw %struct.exr_attr_chlist_entry_t, ptr %69, i64 %indvars.iv, i32 0, i32 2
  %71 = load ptr, ptr %70, align 8, !tbaa !108
  %72 = tail call i32 (ptr, i32, ptr, ...) %67(ptr noundef nonnull %0, i32 noundef 12, ptr noundef nonnull @.str.11, i32 noundef %68, ptr noundef %71, i32 noundef 31) #13
  br label %74

.thread103:                                       ; preds = %.thread83, %23
  %indvars.iv.next137 = add nuw nsw i64 %indvars.iv136, 1
  %exitcond140.not = icmp eq i64 %indvars.iv.next137, %wide.trip.count139
  br i1 %exitcond140.not, label %.thread106, label %23, !llvm.loop !109

.thread106:                                       ; preds = %.thread103, %.preheader, %.thread, %15
  %.06582 = phi i8 [ -1, %.thread ], [ 31, %15 ], [ 31, %.preheader ], [ 31, %.thread103 ]
  store i8 %.06582, ptr %13, align 2, !tbaa !78
  %73 = tail call i32 @pthread_mutex_unlock(ptr noundef nonnull %4) #13
  br label %74

74:                                               ; preds = %.thread101, %63, %2, %.thread106, %7
  %.064 = phi i32 [ %11, %7 ], [ 0, %.thread106 ], [ 2, %2 ], [ %72, %63 ], [ %47, %.thread101 ]
  ret i32 %.064
}